target datalayout = "e-m:e-p270:32:32-p271:32:32-p272:64:64-i64:64-i128:128-f80:128-n8:16:32:64-S128"
target triple = "x86_64-pc-linux-gnu"

%struct.Sharedsort = type { i8, i32, i32, %struct.SharedFileSet, i32, [0 x %struct.TapeShare] }
%struct.SharedFileSet = type { %struct.FileSet, i8, i32 }
%struct.FileSet = type { i32, i32, i32, [8 x i32] }
%struct.TapeShare = type { i64 }

; Function Attrs: nounwind uwtable
define dso_local void @tuplesort_initialize_shared(ptr noundef %0, i32 noundef %1, ptr noundef %2) #0 {
  %4 = alloca ptr, align 8
  %5 = alloca i32, align 4
  %6 = alloca ptr, align 8
  %7 = alloca i32, align 4
  store ptr %0, ptr %4, align 8
  store i32 %1, ptr %5, align 4
  store ptr %2, ptr %6, align 8
  call void @llvm.lifetime.start.p0(i64 4, ptr %7) #9
  br label %8

8:                                                ; preds = %3
  call void asm sideeffect "", "~{memory},~{dirflag},~{fpsr},~{flags}"() #9, !srcloc !17
  %9 = load ptr, ptr %4, align 8
  %10 = getelementptr inbounds nuw %struct.Sharedsort, ptr %9, i32 0, i32 0
  store i8 0, ptr %10, align 8
  br label %11

11:                                               ; preds = %8
  br label %12

12:                                               ; preds = %11
  %13 = load ptr, ptr %4, align 8
  %14 = getelementptr inbounds nuw %struct.Sharedsort, ptr %13, i32 0, i32 1
  store i32 0, ptr %14, align 4
  %15 = load ptr, ptr %4, align 8
  %16 = getelementptr inbounds nuw %struct.Sharedsort, ptr %15, i32 0, i32 2
  store i32 0, ptr %16, align 8
  %17 = load ptr, ptr %4, align 8
  %18 = getelementptr inbounds nuw %struct.Sharedsort, ptr %17, i32 0, i32 3
  %19 = load ptr, ptr %6, align 8
  call void @SharedFileSetInit(ptr noundef %18, ptr noundef %19)
  %20 = load i32, ptr %5, align 4
  %21 = load ptr, ptr %4, align 8
  %22 = getelementptr inbounds nuw %struct.Sharedsort, ptr %21, i32 0, i32 4
  store i32 %20, ptr %22, align 8
  store i32 0, ptr %7, align 4
  br label %23

23:                                               ; preds = %34, %12
  %24 = load i32, ptr %7, align 4
  %25 = load i32, ptr %5, align 4
  %26 = icmp slt i32 %24, %25
  br i1 %26, label %27, label %37

27:                                               ; preds = %23
  %28 = load ptr, ptr %4, align 8
  %29 = getelementptr inbounds nuw %struct.Sharedsort, ptr %28, i32 0, i32 5
  %30 = load i32, ptr %7, align 4
  %31 = sext i32 %30 to i64
  %32 = getelementptr inbounds [0 x %struct.TapeShare], ptr %29, i64 0, i64 %31
  %33 = getelementptr inbounds nuw %struct.TapeShare, ptr %32, i32 0, i32 0
  store i64 0, ptr %33, align 8
  br label %34

34:                                               ; preds = %27
  %35 = load i32, ptr %7, align 4
  %36 = add i32 %35, 1
  store i32 %36, ptr %7, align 4
  br label %23, !llvm.loop !18

37:                                               ; preds = %23
  call void @llvm.lifetime.end.p0(i64 4, ptr %7) #9
  ret void
}