; Function Attrs: nounwind uwtable
define dso_local void @tuplesort_initialize_shared(ptr noundef initializes((0, 1), (4, 12)) %0, i32 noundef %1, ptr noundef %2) local_unnamed_addr #0 {
  tail call void asm sideeffect "", "~{memory},~{dirflag},~{fpsr},~{flags}"() #13, !srcloc !22
  store i8 0, ptr %0, align 8
  %4 = getelementptr inbounds nuw i8, ptr %0, i64 4
  store i32 0, ptr %4, align 4
  %5 = getelementptr inbounds nuw i8, ptr %0, i64 8
  store i32 0, ptr %5, align 8
  %6 = getelementptr inbounds nuw i8, ptr %0, i64 12
  tail call void @SharedFileSetInit(ptr noundef nonnull %6, ptr noundef %2) #13
  %7 = getelementptr inbounds nuw i8, ptr %0, i64 64
  store i32 %1, ptr %7, align 8
  %8 = icmp sgt i32 %1, 0
  br i1 %8, label %.lr.ph, label %._crit_edge

.lr.ph:                                           ; preds = %3
  %9 = getelementptr inbounds nuw i8, ptr %0, i64 72
  %10 = zext nneg i32 %1 to i64
  %11 = shl nuw nsw i64 %10, 3
  tail call void @llvm.memset.p0.i64(ptr nonnull align 8 %9, i8 0, i64 %11, i1 false)
  br label %._crit_edge

._crit_edge:                                      ; preds = %.lr.ph, %3
  ret void
}